target datalayout = "e-m:e-p270:32:32-p271:32:32-p272:64:64-i64:64-i128:128-f80:128-n8:16:32:64-S128"
target triple = "x86_64-pc-linux-gnu"

%"class.cv::KeyPoint" = type { %"class.cv::Point_", float, float, float, i32, i32 }
%"class.cv::Point_" = type { float, float }

; Function Attrs: inlinehint mustprogress nounwind uwtable
define linkonce_odr hidden void @_ZN2cv6Point_IfEC2Eff(ptr noundef nonnull align 4 dereferenceable(8) %0, float noundef %1, float noundef %2) unnamed_addr #6 comdat align 2 {
  %4 = alloca ptr, align 8
  %5 = alloca float, align 4
  %6 = alloca float, align 4
  store ptr %0, ptr %4, align 8, !tbaa !58
  store float %1, ptr %5, align 4, !tbaa !29
  store float %2, ptr %6, align 4, !tbaa !29
  %7 = load ptr, ptr %4, align 8
  %8 = getelementptr inbounds nuw %"class.cv::Point_", ptr %7, i32 0, i32 0
  %9 = load float, ptr %5, align 4, !tbaa !29
  store float %9, ptr %8, align 4, !tbaa !59
  %10 = getelementptr inbounds nuw %"class.cv::Point_", ptr %7, i32 0, i32 1
  %11 = load float, ptr %6, align 4, !tbaa !29
  store float %11, ptr %10, align 4, !tbaa !60
  ret void
}

; Function Attrs: inlinehint mustprogress nounwind uwtable
define internal noundef float @_ZN2cvL13saturate_castIfEET_f(float noundef %0) #6 {
  %2 = alloca float, align 4
  store float %0, ptr %2, align 4, !tbaa !29
  %3 = load float, ptr %2, align 4, !tbaa !29
  ret float %3
}

; Function Attrs: inlinehint mustprogress nounwind uwtable
define linkonce_odr noundef float @_ZSt3sinf(float noundef %0) #6 comdat {
  %2 = alloca float, align 4
  store float %0, ptr %2, align 4, !tbaa !29
  %3 = load float, ptr %2, align 4, !tbaa !29
  %4 = call float @sinf(float noundef %3) #18, !tbaa !32
  ret float %4
}

; Function Attrs: inlinehint mustprogress nounwind uwtable
define linkonce_odr noundef float @_ZSt4acosf(float noundef %0) #6 comdat {
  %2 = alloca float, align 4
  store float %0, ptr %2, align 4, !tbaa !29
  %3 = load float, ptr %2, align 4, !tbaa !29
  %4 = call float @acosf(float noundef %3) #18, !tbaa !32
  ret float %4
}

; Function Attrs: inlinehint mustprogress nounwind uwtable
define linkonce_odr noundef nonnull align 4 dereferenceable(4) ptr @_ZSt3maxIfERKT_S2_S2_(ptr noundef nonnull align 4 dereferenceable(4) %0, ptr noundef nonnull align 4 dereferenceable(4) %1) #6 comdat {
  %3 = alloca ptr, align 8
  %4 = alloca ptr, align 8
  %5 = alloca ptr, align 8
  store ptr %0, ptr %4, align 8, !tbaa !61
  store ptr %1, ptr %5, align 8, !tbaa !61
  %6 = load ptr, ptr %4, align 8, !tbaa !61
  %7 = load float, ptr %6, align 4, !tbaa !29
  %8 = load ptr, ptr %5, align 8, !tbaa !61
  %9 = load float, ptr %8, align 4, !tbaa !29
  %10 = fcmp olt float %7, %9
  br i1 %10, label %11, label %13

11:                                               ; preds = %2
  %12 = load ptr, ptr %5, align 8, !tbaa !61
  store ptr %12, ptr %3, align 8
  br label %15

13:                                               ; preds = %2
  %14 = load ptr, ptr %4, align 8, !tbaa !61
  store ptr %14, ptr %3, align 8
  br label %15

15:                                               ; preds = %13, %11
  %16 = load ptr, ptr %3, align 8
  ret ptr %16
}

; Function Attrs: inlinehint mustprogress nounwind uwtable
define linkonce_odr noundef nonnull align 4 dereferenceable(4) ptr @_ZSt3minIfERKT_S2_S2_(ptr noundef nonnull align 4 dereferenceable(4) %0, ptr noundef nonnull align 4 dereferenceable(4) %1) #6 comdat {
  %3 = alloca ptr, align 8
  %4 = alloca ptr, align 8
  %5 = alloca ptr, align 8
  store ptr %0, ptr %4, align 8, !tbaa !61
  store ptr %1, ptr %5, align 8, !tbaa !61
  %6 = load ptr, ptr %5, align 8, !tbaa !61
  %7 = load float, ptr %6, align 4, !tbaa !29
  %8 = load ptr, ptr %4, align 8, !tbaa !61
  %9 = load float, ptr %8, align 4, !tbaa !29
  %10 = fcmp olt float %7, %9
  br i1 %10, label %11, label %13

11:                                               ; preds = %2
  %12 = load ptr, ptr %5, align 8, !tbaa !61
  store ptr %12, ptr %3, align 8
  br label %15

13:                                               ; preds = %2
  %14 = load ptr, ptr %4, align 8, !tbaa !61
  store ptr %14, ptr %3, align 8
  br label %15

15:                                               ; preds = %13, %11
  %16 = load ptr, ptr %3, align 8
  ret ptr %16
}

; Function Attrs: inlinehint mustprogress nounwind uwtable
define internal noundef double @_ZN2cvL4normIfEEdRKNS_6Point_IT_EE(ptr noundef nonnull align 4 dereferenceable(8) %0) #6 {
  %2 = alloca ptr, align 8
  store ptr %0, ptr %2, align 8, !tbaa !58
  %3 = load ptr, ptr %2, align 8, !tbaa !58
  %4 = getelementptr inbounds nuw %"class.cv::Point_", ptr %3, i32 0, i32 0
  %5 = load float, ptr %4, align 4, !tbaa !59
  %6 = fpext float %5 to double
  %7 = load ptr, ptr %2, align 8, !tbaa !58
  %8 = getelementptr inbounds nuw %"class.cv::Point_", ptr %7, i32 0, i32 0
  %9 = load float, ptr %8, align 4, !tbaa !59
  %10 = fpext float %9 to double
  %11 = load ptr, ptr %2, align 8, !tbaa !58
  %12 = getelementptr inbounds nuw %"class.cv::Point_", ptr %11, i32 0, i32 1
  %13 = load float, ptr %12, align 4, !tbaa !60
  %14 = fpext float %13 to double
  %15 = load ptr, ptr %2, align 8, !tbaa !58
  %16 = getelementptr inbounds nuw %"class.cv::Point_", ptr %15, i32 0, i32 1
  %17 = load float, ptr %16, align 4, !tbaa !60
  %18 = fpext float %17 to double
  %19 = fmul double %14, %18
  %20 = call double @llvm.fmuladd.f64(double %6, double %10, double %19)
  %21 = call double @sqrt(double noundef %20) #18, !tbaa !32
  ret double %21
}

; Function Attrs: inlinehint mustprogress uwtable
define internal <2 x float> @_ZN2cvmiIfEENS_6Point_IT_EERKS3_S5_(ptr noundef nonnull align 4 dereferenceable(8) %0, ptr noundef nonnull align 4 dereferenceable(8) %1) #9 {
  %3 = alloca %"class.cv::Point_", align 4
  %4 = alloca ptr, align 8
  %5 = alloca ptr, align 8
  store ptr %0, ptr %4, align 8, !tbaa !58
  store ptr %1, ptr %5, align 8, !tbaa !58
  %6 = load ptr, ptr %4, align 8, !tbaa !58
  %7 = getelementptr inbounds nuw %"class.cv::Point_", ptr %6, i32 0, i32 0
  %8 = load float, ptr %7, align 4, !tbaa !59
  %9 = load ptr, ptr %5, align 8, !tbaa !58
  %10 = getelementptr inbounds nuw %"class.cv::Point_", ptr %9, i32 0, i32 0
  %11 = load float, ptr %10, align 4, !tbaa !59
  %12 = fsub float %8, %11
  %13 = call noundef float @_ZN2cvL13saturate_castIfEET_f(float noundef %12)
  %14 = load ptr, ptr %4, align 8, !tbaa !58
  %15 = getelementptr inbounds nuw %"class.cv::Point_", ptr %14, i32 0, i32 1
  %16 = load float, ptr %15, align 4, !tbaa !60
  %17 = load ptr, ptr %5, align 8, !tbaa !58
  %18 = getelementptr inbounds nuw %"class.cv::Point_", ptr %17, i32 0, i32 1
  %19 = load float, ptr %18, align 4, !tbaa !60
  %20 = fsub float %16, %19
  %21 = call noundef float @_ZN2cvL13saturate_castIfEET_f(float noundef %20)
  call void @_ZN2cv6Point_IfEC2Eff(ptr noundef nonnull align 4 dereferenceable(8) %3, float noundef %13, float noundef %21)
  %22 = load <2 x float>, ptr %3, align 4
  ret <2 x float> %22
}

; Function Attrs: mustprogress uwtable
define noundef float @_ZN2cv8KeyPoint7overlapERKS0_S2_(ptr noundef nonnull align 4 dereferenceable(28) %0, ptr noundef nonnull align 4 dereferenceable(28) %1) #7 align 2 {
  %3 = alloca float, align 4
  %4 = alloca ptr, align 8
  %5 = alloca ptr, align 8
  %6 = alloca float, align 4
  %7 = alloca float, align 4
  %8 = alloca float, align 4
  %9 = alloca float, align 4
  %10 = alloca %"class.cv::Point_", align 4
  %11 = alloca %"class.cv::Point_", align 4
  %12 = alloca float, align 4
  %13 = alloca %"class.cv::Point_", align 4
  %14 = alloca float, align 4
  %15 = alloca i32, align 4
  %16 = alloca float, align 4
  %17 = alloca float, align 4
  %18 = alloca float, align 4
  %19 = alloca float, align 4
  %20 = alloca float, align 4
  %21 = alloca float, align 4
  %22 = alloca float, align 4
  %23 = alloca float, align 4
  %24 = alloca float, align 4
  %25 = alloca float, align 4
  %26 = alloca float, align 4
  %27 = alloca float, align 4
  %28 = alloca float, align 4
  store ptr %0, ptr %4, align 8, !tbaa !3
  store ptr %1, ptr %5, align 8, !tbaa !3
  call void @llvm.lifetime.start.p0(i64 4, ptr %6) #18
  %29 = load ptr, ptr %4, align 8, !tbaa !3
  %30 = getelementptr inbounds nuw %"class.cv::KeyPoint", ptr %29, i32 0, i32 1
  %31 = load float, ptr %30, align 4, !tbaa !17
  %32 = fmul float %31, 5.000000e-01
  store float %32, ptr %6, align 4, !tbaa !29
  call void @llvm.lifetime.start.p0(i64 4, ptr %7) #18
  %33 = load ptr, ptr %5, align 8, !tbaa !3
  %34 = getelementptr inbounds nuw %"class.cv::KeyPoint", ptr %33, i32 0, i32 1
  %35 = load float, ptr %34, align 4, !tbaa !17
  %36 = fmul float %35, 5.000000e-01
  store float %36, ptr %7, align 4, !tbaa !29
  call void @llvm.lifetime.start.p0(i64 4, ptr %8) #18
  %37 = load float, ptr %6, align 4, !tbaa !29
  %38 = load float, ptr %6, align 4, !tbaa !29
  %39 = fmul float %37, %38
  store float %39, ptr %8, align 4, !tbaa !29
  call void @llvm.lifetime.start.p0(i64 4, ptr %9) #18
  %40 = load float, ptr %7, align 4, !tbaa !29
  %41 = load float, ptr %7, align 4, !tbaa !29
  %42 = fmul float %40, %41
  store float %42, ptr %9, align 4, !tbaa !29
  call void @llvm.lifetime.start.p0(i64 8, ptr %10) #18
  %43 = load ptr, ptr %4, align 8, !tbaa !3
  %44 = getelementptr inbounds nuw %"class.cv::KeyPoint", ptr %43, i32 0, i32 0
  call void @llvm.memcpy.p0.p0.i64(ptr align 4 %10, ptr align 4 %44, i64 8, i1 false), !tbaa.struct !28
  call void @llvm.lifetime.start.p0(i64 8, ptr %11) #18
  %45 = load ptr, ptr %5, align 8, !tbaa !3
  %46 = getelementptr inbounds nuw %"class.cv::KeyPoint", ptr %45, i32 0, i32 0
  call void @llvm.memcpy.p0.p0.i64(ptr align 4 %11, ptr align 4 %46, i64 8, i1 false), !tbaa.struct !28
  call void @llvm.lifetime.start.p0(i64 4, ptr %12) #18
  call void @llvm.lifetime.start.p0(i64 8, ptr %13) #18
  %47 = call <2 x float> @_ZN2cvmiIfEENS_6Point_IT_EERKS3_S5_(ptr noundef nonnull align 4 dereferenceable(8) %10, ptr noundef nonnull align 4 dereferenceable(8) %11)
  store <2 x float> %47, ptr %13, align 4
  %48 = call noundef double @_ZN2cvL4normIfEEdRKNS_6Point_IT_EE(ptr noundef nonnull align 4 dereferenceable(8) %13)
  %49 = fptrunc double %48 to float
  call void @llvm.lifetime.end.p0(i64 8, ptr %13) #18
  store float %49, ptr %12, align 4, !tbaa !29
  call void @llvm.lifetime.start.p0(i64 4, ptr %14) #18
  store float 0.000000e+00, ptr %14, align 4, !tbaa !29
  %50 = call noundef nonnull align 4 dereferenceable(4) ptr @_ZSt3minIfERKT_S2_S2_(ptr noundef nonnull align 4 dereferenceable(4) %6, ptr noundef nonnull align 4 dereferenceable(4) %7)
  %51 = load float, ptr %50, align 4, !tbaa !29
  %52 = load float, ptr %12, align 4, !tbaa !29
  %53 = fadd float %51, %52
  %54 = call noundef nonnull align 4 dereferenceable(4) ptr @_ZSt3maxIfERKT_S2_S2_(ptr noundef nonnull align 4 dereferenceable(4) %6, ptr noundef nonnull align 4 dereferenceable(4) %7)
  %55 = load float, ptr %54, align 4, !tbaa !29
  %56 = fcmp ole float %53, %55
  br i1 %56, label %57, label %63

57:                                               ; preds = %2
  %58 = call noundef nonnull align 4 dereferenceable(4) ptr @_ZSt3minIfERKT_S2_S2_(ptr noundef nonnull align 4 dereferenceable(4) %8, ptr noundef nonnull align 4 dereferenceable(4) %9)
  %59 = load float, ptr %58, align 4, !tbaa !29
  %60 = call noundef nonnull align 4 dereferenceable(4) ptr @_ZSt3maxIfERKT_S2_S2_(ptr noundef nonnull align 4 dereferenceable(4) %8, ptr noundef nonnull align 4 dereferenceable(4) %9)
  %61 = load float, ptr %60, align 4, !tbaa !29
  %62 = fdiv float %59, %61
  store float %62, ptr %3, align 4
  store i32 1, ptr %15, align 4
  br label %137

63:                                               ; preds = %2
  %64 = load float, ptr %12, align 4, !tbaa !29
  %65 = load float, ptr %6, align 4, !tbaa !29
  %66 = load float, ptr %7, align 4, !tbaa !29
  %67 = fadd float %65, %66
  %68 = fcmp olt float %64, %67
  br i1 %68, label %69, label %135

69:                                               ; preds = %63
  call void @llvm.lifetime.start.p0(i64 4, ptr %16) #18
  %70 = load float, ptr %12, align 4, !tbaa !29
  %71 = load float, ptr %12, align 4, !tbaa !29
  %72 = fmul float %70, %71
  store float %72, ptr %16, align 4, !tbaa !29
  call void @llvm.lifetime.start.p0(i64 4, ptr %17) #18
  %73 = load float, ptr %9, align 4, !tbaa !29
  %74 = load float, ptr %16, align 4, !tbaa !29
  %75 = fadd float %73, %74
  %76 = load float, ptr %8, align 4, !tbaa !29
  %77 = fsub float %75, %76
  %78 = load ptr, ptr %5, align 8, !tbaa !3
  %79 = getelementptr inbounds nuw %"class.cv::KeyPoint", ptr %78, i32 0, i32 1
  %80 = load float, ptr %79, align 4, !tbaa !17
  %81 = load float, ptr %12, align 4, !tbaa !29
  %82 = fmul float %80, %81
  %83 = fdiv float %77, %82
  store float %83, ptr %17, align 4, !tbaa !29
  call void @llvm.lifetime.start.p0(i64 4, ptr %18) #18
  %84 = load float, ptr %8, align 4, !tbaa !29
  %85 = load float, ptr %16, align 4, !tbaa !29
  %86 = fadd float %84, %85
  %87 = load float, ptr %9, align 4, !tbaa !29
  %88 = fsub float %86, %87
  %89 = load ptr, ptr %4, align 8, !tbaa !3
  %90 = getelementptr inbounds nuw %"class.cv::KeyPoint", ptr %89, i32 0, i32 1
  %91 = load float, ptr %90, align 4, !tbaa !17
  %92 = load float, ptr %12, align 4, !tbaa !29
  %93 = fmul float %91, %92
  %94 = fdiv float %88, %93
  store float %94, ptr %18, align 4, !tbaa !29
  call void @llvm.lifetime.start.p0(i64 4, ptr %19) #18
  %95 = load float, ptr %17, align 4, !tbaa !29
  %96 = call noundef float @_ZSt4acosf(float noundef %95)
  store float %96, ptr %19, align 4, !tbaa !29
  call void @llvm.lifetime.start.p0(i64 4, ptr %20) #18
  %97 = load float, ptr %18, align 4, !tbaa !29
  %98 = call noundef float @_ZSt4acosf(float noundef %97)
  store float %98, ptr %20, align 4, !tbaa !29
  call void @llvm.lifetime.start.p0(i64 4, ptr %21) #18
  %99 = load float, ptr %19, align 4, !tbaa !29
  %100 = call noundef float @_ZSt3sinf(float noundef %99)
  store float %100, ptr %21, align 4, !tbaa !29
  call void @llvm.lifetime.start.p0(i64 4, ptr %22) #18
  %101 = load float, ptr %20, align 4, !tbaa !29
  %102 = call noundef float @_ZSt3sinf(float noundef %101)
  store float %102, ptr %22, align 4, !tbaa !29
  call void @llvm.lifetime.start.p0(i64 4, ptr %23) #18
  %103 = load float, ptr %8, align 4, !tbaa !29
  %104 = load float, ptr %20, align 4, !tbaa !29
  %105 = fmul float %103, %104
  store float %105, ptr %23, align 4, !tbaa !29
  call void @llvm.lifetime.start.p0(i64 4, ptr %24) #18
  %106 = load float, ptr %9, align 4, !tbaa !29
  %107 = load float, ptr %19, align 4, !tbaa !29
  %108 = fmul float %106, %107
  store float %108, ptr %24, align 4, !tbaa !29
  call void @llvm.lifetime.start.p0(i64 4, ptr %25) #18
  %109 = load float, ptr %8, align 4, !tbaa !29
  %110 = load float, ptr %22, align 4, !tbaa !29
  %111 = fmul float %109, %110
  %112 = load float, ptr %18, align 4, !tbaa !29
  %113 = fmul float %111, %112
  store float %113, ptr %25, align 4, !tbaa !29
  call void @llvm.lifetime.start.p0(i64 4, ptr %26) #18
  %114 = load float, ptr %9, align 4, !tbaa !29
  %115 = load float, ptr %21, align 4, !tbaa !29
  %116 = fmul float %114, %115
  %117 = load float, ptr %17, align 4, !tbaa !29
  %118 = fmul float %116, %117
  store float %118, ptr %26, align 4, !tbaa !29
  call void @llvm.lifetime.start.p0(i64 4, ptr %27) #18
  %119 = load float, ptr %23, align 4, !tbaa !29
  %120 = load float, ptr %24, align 4, !tbaa !29
  %121 = fadd float %119, %120
  %122 = load float, ptr %25, align 4, !tbaa !29
  %123 = fsub float %121, %122
  %124 = load float, ptr %26, align 4, !tbaa !29
  %125 = fsub float %123, %124
  store float %125, ptr %27, align 4, !tbaa !29
  call void @llvm.lifetime.start.p0(i64 4, ptr %28) #18
  %126 = load float, ptr %8, align 4, !tbaa !29
  %127 = load float, ptr %9, align 4, !tbaa !29
  %128 = fadd float %126, %127
  %129 = load float, ptr %27, align 4, !tbaa !29
  %130 = fneg float %129
  %131 = call float @llvm.fmuladd.f32(float %128, float 0x400921FB60000000, float %130)
  store float %131, ptr %28, align 4, !tbaa !29
  %132 = load float, ptr %27, align 4, !tbaa !29
  %133 = load float, ptr %28, align 4, !tbaa !29
  %134 = fdiv float %132, %133
  store float %134, ptr %14, align 4, !tbaa !29
  call void @llvm.lifetime.end.p0(i64 4, ptr %28) #18
  call void @llvm.lifetime.end.p0(i64 4, ptr %27) #18
  call void @llvm.lifetime.end.p0(i64 4, ptr %26) #18
  call void @llvm.lifetime.end.p0(i64 4, ptr %25) #18
  call void @llvm.lifetime.end.p0(i64 4, ptr %24) #18
  call void @llvm.lifetime.end.p0(i64 4, ptr %23) #18
  call void @llvm.lifetime.end.p0(i64 4, ptr %22) #18
  call void @llvm.lifetime.end.p0(i64 4, ptr %21) #18
  call void @llvm.lifetime.end.p0(i64 4, ptr %20) #18
  call void @llvm.lifetime.end.p0(i64 4, ptr %19) #18
  call void @llvm.lifetime.end.p0(i64 4, ptr %18) #18
  call void @llvm.lifetime.end.p0(i64 4, ptr %17) #18
  call void @llvm.lifetime.end.p0(i64 4, ptr %16) #18
  br label %135

135:                                              ; preds = %69, %63
  %136 = load float, ptr %14, align 4, !tbaa !29
  store float %136, ptr %3, align 4
  store i32 1, ptr %15, align 4
  br label %137

137:                                              ; preds = %135, %57
  call void @llvm.lifetime.end.p0(i64 4, ptr %14) #18
  call void @llvm.lifetime.end.p0(i64 4, ptr %12) #18
  call void @llvm.lifetime.end.p0(i64 8, ptr %11) #18
  call void @llvm.lifetime.end.p0(i64 8, ptr %10) #18
  call void @llvm.lifetime.end.p0(i64 4, ptr %9) #18
  call void @llvm.lifetime.end.p0(i64 4, ptr %8) #18
  call void @llvm.lifetime.end.p0(i64 4, ptr %7) #18
  call void @llvm.lifetime.end.p0(i64 4, ptr %6) #18
  %138 = load float, ptr %3, align 4
  ret float %138
}