; Function Attrs: mustprogress nofree nounwind willreturn memory(write, argmem: readwrite) uwtable
define noundef float @_ZN2cv8KeyPoint7overlapERKS0_S2_(ptr noundef nonnull readonly align 4 captures(none) dereferenceable(28) %0, ptr noundef nonnull readonly align 4 captures(none) dereferenceable(28) %1) local_unnamed_addr #8 align 2 {
  %3 = getelementptr inbounds nuw i8, ptr %0, i64 8
  %4 = load float, ptr %3, align 4, !tbaa !11
  %5 = fmul float %4, 5.000000e-01
  %6 = getelementptr inbounds nuw i8, ptr %1, i64 8
  %7 = load float, ptr %6, align 4, !tbaa !11
  %8 = fmul float %7, 5.000000e-01
  %9 = fmul float %5, %5
  %10 = fmul float %8, %8
  %11 = load float, ptr %0, align 4
  %.sroa_idx45 = getelementptr inbounds nuw i8, ptr %0, i64 4
  %12 = load float, ptr %.sroa_idx45, align 4
  %13 = load float, ptr %1, align 4
  %.sroa_idx = getelementptr inbounds nuw i8, ptr %1, i64 4
  %14 = load float, ptr %.sroa_idx, align 4
  %15 = fsub float %11, %13
  %16 = fsub float %12, %14
  %17 = fpext float %15 to double
  %18 = fpext float %16 to double
  %19 = fmul double %18, %18
  %20 = tail call double @llvm.fmuladd.f64(double %17, double %17, double %19)
  %sqrt.i = tail call noundef double @llvm.sqrt.f64(double %20)
  %21 = fptrunc double %sqrt.i to float
  %22 = fcmp olt float %8, %5
  %.sroa.speculated64 = select i1 %22, float %8, float %5
  %23 = fadd float %.sroa.speculated64, %21
  %24 = fcmp olt float %5, %8
  %.sroa.speculated61 = select i1 %24, float %8, float %5
  %25 = fcmp ugt float %23, %.sroa.speculated61
  br i1 %25, label %30, label %26

26:                                               ; preds = %2
  %27 = fcmp olt float %10, %9
  %.sroa.speculated54 = select i1 %27, float %10, float %9
  %28 = fcmp olt float %9, %10
  %.sroa.speculated = select i1 %28, float %10, float %9
  %29 = fdiv float %.sroa.speculated54, %.sroa.speculated
  br label %60

30:                                               ; preds = %2
  %31 = fadd float %5, %8
  %32 = fcmp ogt float %31, %21
  br i1 %32, label %33, label %60

33:                                               ; preds = %30
  %34 = fmul float %21, %21
  %35 = fadd float %10, %34
  %36 = fsub float %35, %9
  %37 = fmul float %7, %21
  %38 = fdiv float %36, %37
  %39 = fadd float %9, %34
  %40 = fsub float %39, %10
  %41 = fmul float %4, %21
  %42 = fdiv float %40, %41
  %43 = tail call noundef float @acosf(float noundef %38) #20, !tbaa !31
  %44 = tail call noundef float @acosf(float noundef %42) #20, !tbaa !31
  %45 = tail call noundef float @sinf(float noundef %43) #20, !tbaa !31
  %46 = tail call noundef float @sinf(float noundef %44) #20, !tbaa !31
  %47 = fmul float %9, %44
  %48 = fmul float %10, %43
  %49 = fmul float %9, %46
  %50 = fmul float %42, %49
  %51 = fmul float %10, %45
  %52 = fmul float %38, %51
  %53 = fadd float %48, %47
  %54 = fsub float %53, %50
  %55 = fsub float %54, %52
  %56 = fadd float %9, %10
  %57 = fneg float %55
  %58 = tail call float @llvm.fmuladd.f32(float %56, float 0x400921FB60000000, float %57)
  %59 = fdiv float %55, %58
  br label %60

60:                                               ; preds = %30, %33, %26
  %.0 = phi float [ %29, %26 ], [ %59, %33 ], [ 0.000000e+00, %30 ]
  ret float %.0
}